target datalayout = "e-m:e-p270:32:32-p271:32:32-p272:64:64-i64:64-i128:128-f80:128-n8:16:32:64-S128"
target triple = "x86_64-pc-linux-gnu"

%class.memif_t = type { ptr, ptr }

; Function Attrs: inlinehint mustprogress nounwind uwtable
define linkonce_odr noundef nonnull align 8 dereferenceable(8) ptr @_ZSt3minImERKT_S2_S2_(ptr noundef nonnull align 8 dereferenceable(8) %0, ptr noundef nonnull align 8 dereferenceable(8) %1) #2 comdat {
  %3 = alloca ptr, align 8
  %4 = alloca ptr, align 8
  %5 = alloca ptr, align 8
  store ptr %0, ptr %4, align 8, !tbaa !18
  store ptr %1, ptr %5, align 8, !tbaa !18
  %6 = load ptr, ptr %5, align 8, !tbaa !18
  %7 = load i64, ptr %6, align 8, !tbaa !8
  %8 = load ptr, ptr %4, align 8, !tbaa !18
  %9 = load i64, ptr %8, align 8, !tbaa !8
  %10 = icmp ult i64 %7, %9
  br i1 %10, label %11, label %13

11:                                               ; preds = %2
  %12 = load ptr, ptr %5, align 8, !tbaa !18
  store ptr %12, ptr %3, align 8
  br label %15

13:                                               ; preds = %2
  %14 = load ptr, ptr %4, align 8, !tbaa !18
  store ptr %14, ptr %3, align 8
  br label %15

15:                                               ; preds = %13, %11
  %16 = load ptr, ptr %3, align 8
  ret ptr %16
}

; Function Attrs: mustprogress uwtable
define void @_ZN7memif_t5writeEmmPKv(ptr noundef nonnull align 8 dereferenceable(16) %0, i64 noundef %1, i64 noundef %2, ptr noundef %3) unnamed_addr #0 align 2 {
  %5 = alloca ptr, align 8
  %6 = alloca i64, align 8
  %7 = alloca i64, align 8
  %8 = alloca ptr, align 8
  %9 = alloca i64, align 8
  %10 = alloca i64, align 8
  %11 = alloca i64, align 8
  %12 = alloca ptr, align 8
  %13 = alloca i64, align 8
  %14 = alloca i64, align 8
  %15 = alloca i64, align 8
  %16 = alloca ptr, align 8
  %17 = alloca i64, align 8
  %18 = alloca i8, align 1
  %19 = alloca i64, align 8
  %20 = alloca i64, align 8
  %21 = alloca i64, align 8
  %22 = alloca i64, align 8
  store ptr %0, ptr %5, align 8, !tbaa !3
  store i64 %1, ptr %6, align 8, !tbaa !8
  store i64 %2, ptr %7, align 8, !tbaa !8
  store ptr %3, ptr %8, align 8, !tbaa !10
  %23 = load ptr, ptr %5, align 8
  call void @llvm.lifetime.start.p0(i64 8, ptr %9) #9
  %24 = getelementptr inbounds nuw %class.memif_t, ptr %23, i32 0, i32 1
  %25 = load ptr, ptr %24, align 8, !tbaa !11
  %26 = load ptr, ptr %25, align 8, !tbaa !14
  %27 = getelementptr inbounds ptr, ptr %26, i64 3
  %28 = load ptr, ptr %27, align 8
  %29 = call noundef i64 %28(ptr noundef nonnull align 8 dereferenceable(8) %25)
  store i64 %29, ptr %9, align 8, !tbaa !8
  %30 = load i64, ptr %7, align 8, !tbaa !8
  %31 = icmp ne i64 %30, 0
  br i1 %31, label %32, label %89

32:                                               ; preds = %4
  %33 = load i64, ptr %6, align 8, !tbaa !8
  %34 = load i64, ptr %9, align 8, !tbaa !8
  %35 = sub i64 %34, 1
  %36 = and i64 %33, %35
  %37 = icmp ne i64 %36, 0
  br i1 %37, label %38, label %89

38:                                               ; preds = %32
  call void @llvm.lifetime.start.p0(i64 8, ptr %10) #9
  call void @llvm.lifetime.start.p0(i64 8, ptr %11) #9
  %39 = load i64, ptr %9, align 8, !tbaa !8
  %40 = load i64, ptr %6, align 8, !tbaa !8
  %41 = load i64, ptr %9, align 8, !tbaa !8
  %42 = sub i64 %41, 1
  %43 = and i64 %40, %42
  %44 = sub i64 %39, %43
  store i64 %44, ptr %11, align 8, !tbaa !8
  %45 = call noundef nonnull align 8 dereferenceable(8) ptr @_ZSt3minImERKT_S2_S2_(ptr noundef nonnull align 8 dereferenceable(8) %7, ptr noundef nonnull align 8 dereferenceable(8) %11)
  %46 = load i64, ptr %45, align 8, !tbaa !8
  call void @llvm.lifetime.end.p0(i64 8, ptr %11) #9
  store i64 %46, ptr %10, align 8, !tbaa !8
  %47 = load i64, ptr %9, align 8, !tbaa !8
  %48 = call ptr @llvm.stacksave.p0()
  store ptr %48, ptr %12, align 8
  %49 = alloca i8, i64 %47, align 16
  store i64 %47, ptr %13, align 8
  %50 = getelementptr inbounds nuw %class.memif_t, ptr %23, i32 0, i32 1
  %51 = load ptr, ptr %50, align 8, !tbaa !11
  %52 = load i64, ptr %6, align 8, !tbaa !8
  %53 = load i64, ptr %9, align 8, !tbaa !8
  %54 = sub i64 %53, 1
  %55 = xor i64 %54, -1
  %56 = and i64 %52, %55
  %57 = load i64, ptr %9, align 8, !tbaa !8
  %58 = load ptr, ptr %51, align 8, !tbaa !14
  %59 = getelementptr inbounds ptr, ptr %58, i64 0
  %60 = load ptr, ptr %59, align 8
  call void %60(ptr noundef nonnull align 8 dereferenceable(8) %51, i64 noundef %56, i64 noundef %57, ptr noundef %49)
  %61 = load i64, ptr %6, align 8, !tbaa !8
  %62 = load i64, ptr %9, align 8, !tbaa !8
  %63 = sub i64 %62, 1
  %64 = and i64 %61, %63
  %65 = getelementptr inbounds nuw i8, ptr %49, i64 %64
  %66 = load ptr, ptr %8, align 8, !tbaa !10
  %67 = load i64, ptr %10, align 8, !tbaa !8
  call void @llvm.memcpy.p0.p0.i64(ptr align 1 %65, ptr align 1 %66, i64 %67, i1 false)
  %68 = getelementptr inbounds nuw %class.memif_t, ptr %23, i32 0, i32 1
  %69 = load ptr, ptr %68, align 8, !tbaa !11
  %70 = load i64, ptr %6, align 8, !tbaa !8
  %71 = load i64, ptr %9, align 8, !tbaa !8
  %72 = sub i64 %71, 1
  %73 = xor i64 %72, -1
  %74 = and i64 %70, %73
  %75 = load i64, ptr %9, align 8, !tbaa !8
  %76 = load ptr, ptr %69, align 8, !tbaa !14
  %77 = getelementptr inbounds ptr, ptr %76, i64 1
  %78 = load ptr, ptr %77, align 8
  call void %78(ptr noundef nonnull align 8 dereferenceable(8) %69, i64 noundef %74, i64 noundef %75, ptr noundef %49)
  %79 = load ptr, ptr %8, align 8, !tbaa !10
  %80 = load i64, ptr %10, align 8, !tbaa !8
  %81 = getelementptr inbounds nuw i8, ptr %79, i64 %80
  store ptr %81, ptr %8, align 8, !tbaa !10
  %82 = load i64, ptr %10, align 8, !tbaa !8
  %83 = load i64, ptr %6, align 8, !tbaa !8
  %84 = add i64 %83, %82
  store i64 %84, ptr %6, align 8, !tbaa !8
  %85 = load i64, ptr %10, align 8, !tbaa !8
  %86 = load i64, ptr %7, align 8, !tbaa !8
  %87 = sub i64 %86, %85
  store i64 %87, ptr %7, align 8, !tbaa !8
  %88 = load ptr, ptr %12, align 8
  call void @llvm.stackrestore.p0(ptr %88)
  call void @llvm.lifetime.end.p0(i64 8, ptr %10) #9
  br label %89

89:                                               ; preds = %38, %32, %4
  %90 = load i64, ptr %7, align 8, !tbaa !8
  %91 = load i64, ptr %9, align 8, !tbaa !8
  %92 = sub i64 %91, 1
  %93 = and i64 %90, %92
  %94 = icmp ne i64 %93, 0
  br i1 %94, label %95, label %132

95:                                               ; preds = %89
  call void @llvm.lifetime.start.p0(i64 8, ptr %14) #9
  %96 = load i64, ptr %7, align 8, !tbaa !8
  %97 = load i64, ptr %9, align 8, !tbaa !8
  %98 = sub i64 %97, 1
  %99 = and i64 %96, %98
  store i64 %99, ptr %14, align 8, !tbaa !8
  call void @llvm.lifetime.start.p0(i64 8, ptr %15) #9
  %100 = load i64, ptr %7, align 8, !tbaa !8
  %101 = load i64, ptr %14, align 8, !tbaa !8
  %102 = sub i64 %100, %101
  store i64 %102, ptr %15, align 8, !tbaa !8
  %103 = load i64, ptr %9, align 8, !tbaa !8
  %104 = call ptr @llvm.stacksave.p0()
  store ptr %104, ptr %16, align 8
  %105 = alloca i8, i64 %103, align 16
  store i64 %103, ptr %17, align 8
  %106 = getelementptr inbounds nuw %class.memif_t, ptr %23, i32 0, i32 1
  %107 = load ptr, ptr %106, align 8, !tbaa !11
  %108 = load i64, ptr %6, align 8, !tbaa !8
  %109 = load i64, ptr %15, align 8, !tbaa !8
  %110 = add i64 %108, %109
  %111 = load i64, ptr %9, align 8, !tbaa !8
  %112 = load ptr, ptr %107, align 8, !tbaa !14
  %113 = getelementptr inbounds ptr, ptr %112, i64 0
  %114 = load ptr, ptr %113, align 8
  call void %114(ptr noundef nonnull align 8 dereferenceable(8) %107, i64 noundef %110, i64 noundef %111, ptr noundef %105)
  %115 = load ptr, ptr %8, align 8, !tbaa !10
  %116 = load i64, ptr %15, align 8, !tbaa !8
  %117 = getelementptr inbounds nuw i8, ptr %115, i64 %116
  %118 = load i64, ptr %14, align 8, !tbaa !8
  call void @llvm.memcpy.p0.p0.i64(ptr align 16 %105, ptr align 1 %117, i64 %118, i1 false)
  %119 = getelementptr inbounds nuw %class.memif_t, ptr %23, i32 0, i32 1
  %120 = load ptr, ptr %119, align 8, !tbaa !11
  %121 = load i64, ptr %6, align 8, !tbaa !8
  %122 = load i64, ptr %15, align 8, !tbaa !8
  %123 = add i64 %121, %122
  %124 = load i64, ptr %9, align 8, !tbaa !8
  %125 = load ptr, ptr %120, align 8, !tbaa !14
  %126 = getelementptr inbounds ptr, ptr %125, i64 1
  %127 = load ptr, ptr %126, align 8
  call void %127(ptr noundef nonnull align 8 dereferenceable(8) %120, i64 noundef %123, i64 noundef %124, ptr noundef %105)
  %128 = load i64, ptr %14, align 8, !tbaa !8
  %129 = load i64, ptr %7, align 8, !tbaa !8
  %130 = sub i64 %129, %128
  store i64 %130, ptr %7, align 8, !tbaa !8
  %131 = load ptr, ptr %16, align 8
  call void @llvm.stackrestore.p0(ptr %131)
  call void @llvm.lifetime.end.p0(i64 8, ptr %15) #9
  call void @llvm.lifetime.end.p0(i64 8, ptr %14) #9
  br label %132

132:                                              ; preds = %95, %89
  call void @llvm.lifetime.start.p0(i64 1, ptr %18) #9
  %133 = load i64, ptr %7, align 8, !tbaa !8
  %134 = icmp ne i64 %133, 0
  %135 = zext i1 %134 to i8
  store i8 %135, ptr %18, align 1, !tbaa !20
  call void @llvm.lifetime.start.p0(i64 8, ptr %19) #9
  store i64 0, ptr %19, align 8, !tbaa !8
  br label %136

136:                                              ; preds = %155, %132
  %137 = load i64, ptr %19, align 8, !tbaa !8
  %138 = load i64, ptr %7, align 8, !tbaa !8
  %139 = icmp ult i64 %137, %138
  br i1 %139, label %141, label %140

140:                                              ; preds = %136
  call void @llvm.lifetime.end.p0(i64 8, ptr %19) #9
  br label %158

141:                                              ; preds = %136
  %142 = load ptr, ptr %8, align 8, !tbaa !10
  %143 = load i64, ptr %19, align 8, !tbaa !8
  %144 = getelementptr inbounds nuw i8, ptr %142, i64 %143
  %145 = load i8, ptr %144, align 1, !tbaa !22
  %146 = sext i8 %145 to i32
  %147 = icmp eq i32 %146, 0
  %148 = zext i1 %147 to i32
  %149 = load i8, ptr %18, align 1, !tbaa !20, !range !23, !noundef !24
  %150 = trunc i8 %149 to i1
  %151 = zext i1 %150 to i32
  %152 = and i32 %151, %148
  %153 = icmp ne i32 %152, 0
  %154 = zext i1 %153 to i8
  store i8 %154, ptr %18, align 1, !tbaa !20
  br label %155

155:                                              ; preds = %141
  %156 = load i64, ptr %19, align 8, !tbaa !8
  %157 = add i64 %156, 1
  store i64 %157, ptr %19, align 8, !tbaa !8
  br label %136, !llvm.loop !25

158:                                              ; preds = %140
  %159 = load i8, ptr %18, align 1, !tbaa !20, !range !23, !noundef !24
  %160 = trunc i8 %159 to i1
  br i1 %160, label %161, label %169

161:                                              ; preds = %158
  %162 = getelementptr inbounds nuw %class.memif_t, ptr %23, i32 0, i32 1
  %163 = load ptr, ptr %162, align 8, !tbaa !11
  %164 = load i64, ptr %6, align 8, !tbaa !8
  %165 = load i64, ptr %7, align 8, !tbaa !8
  %166 = load ptr, ptr %163, align 8, !tbaa !14
  %167 = getelementptr inbounds ptr, ptr %166, i64 2
  %168 = load ptr, ptr %167, align 8
  call void %168(ptr noundef nonnull align 8 dereferenceable(8) %163, i64 noundef %164, i64 noundef %165)
  br label %203

169:                                              ; preds = %158
  call void @llvm.lifetime.start.p0(i64 8, ptr %20) #9
  %170 = getelementptr inbounds nuw %class.memif_t, ptr %23, i32 0, i32 1
  %171 = load ptr, ptr %170, align 8, !tbaa !11
  %172 = load ptr, ptr %171, align 8, !tbaa !14
  %173 = getelementptr inbounds ptr, ptr %172, i64 4
  %174 = load ptr, ptr %173, align 8
  %175 = call noundef i64 %174(ptr noundef nonnull align 8 dereferenceable(8) %171)
  store i64 %175, ptr %20, align 8, !tbaa !8
  call void @llvm.lifetime.start.p0(i64 8, ptr %21) #9
  store i64 0, ptr %21, align 8, !tbaa !8
  br label %176

176:                                              ; preds = %198, %169
  %177 = load i64, ptr %21, align 8, !tbaa !8
  %178 = load i64, ptr %7, align 8, !tbaa !8
  %179 = icmp ult i64 %177, %178
  br i1 %179, label %181, label %180

180:                                              ; preds = %176
  call void @llvm.lifetime.end.p0(i64 8, ptr %21) #9
  br label %202

181:                                              ; preds = %176
  %182 = getelementptr inbounds nuw %class.memif_t, ptr %23, i32 0, i32 1
  %183 = load ptr, ptr %182, align 8, !tbaa !11
  %184 = load i64, ptr %6, align 8, !tbaa !8
  %185 = load i64, ptr %21, align 8, !tbaa !8
  %186 = add i64 %184, %185
  call void @llvm.lifetime.start.p0(i64 8, ptr %22) #9
  %187 = load i64, ptr %7, align 8, !tbaa !8
  %188 = load i64, ptr %21, align 8, !tbaa !8
  %189 = sub i64 %187, %188
  store i64 %189, ptr %22, align 8, !tbaa !8
  %190 = call noundef nonnull align 8 dereferenceable(8) ptr @_ZSt3minImERKT_S2_S2_(ptr noundef nonnull align 8 dereferenceable(8) %20, ptr noundef nonnull align 8 dereferenceable(8) %22)
  %191 = load i64, ptr %190, align 8, !tbaa !8
  %192 = load ptr, ptr %8, align 8, !tbaa !10
  %193 = load i64, ptr %21, align 8, !tbaa !8
  %194 = getelementptr inbounds nuw i8, ptr %192, i64 %193
  %195 = load ptr, ptr %183, align 8, !tbaa !14
  %196 = getelementptr inbounds ptr, ptr %195, i64 1
  %197 = load ptr, ptr %196, align 8
  call void %197(ptr noundef nonnull align 8 dereferenceable(8) %183, i64 noundef %186, i64 noundef %191, ptr noundef %194)
  call void @llvm.lifetime.end.p0(i64 8, ptr %22) #9
  br label %198

198:                                              ; preds = %181
  %199 = load i64, ptr %20, align 8, !tbaa !8
  %200 = load i64, ptr %21, align 8, !tbaa !8
  %201 = add i64 %200, %199
  store i64 %201, ptr %21, align 8, !tbaa !8
  br label %176, !llvm.loop !26

202:                                              ; preds = %180
  call void @llvm.lifetime.end.p0(i64 8, ptr %20) #9
  br label %203

203:                                              ; preds = %202, %161
  call void @llvm.lifetime.end.p0(i64 1, ptr %18) #9
  call void @llvm.lifetime.end.p0(i64 8, ptr %9) #9
  ret void
}