; Function Attrs: mustprogress uwtable
define void @_ZN7memif_t5writeEmmPKv(ptr noundef nonnull readonly align 8 captures(none) dereferenceable(16) %0, i64 noundef %1, i64 noundef %2, ptr noundef %3) unnamed_addr #0 align 2 {
  %5 = getelementptr inbounds nuw i8, ptr %0, i64 8
  %6 = load ptr, ptr %5, align 8, !tbaa !3
  %7 = load ptr, ptr %6, align 8, !tbaa !9
  %8 = getelementptr inbounds nuw i8, ptr %7, i64 24
  %9 = load ptr, ptr %8, align 8
  %10 = tail call noundef i64 %9(ptr noundef nonnull align 8 dereferenceable(8) %6)
  %.not = icmp eq i64 %2, 0
  %.pre = add i64 %10, -1
  br i1 %.not, label %._crit_edge86, label %11

11:                                               ; preds = %4
  %12 = and i64 %.pre, %1
  %.not58 = icmp eq i64 %12, 0
  br i1 %.not58, label %._crit_edge86, label %13

13:                                               ; preds = %11
  %14 = sub i64 %10, %12
  %.sroa.speculated65 = tail call i64 @llvm.umin.i64(i64 %14, i64 %2)
  %15 = tail call ptr @llvm.stacksave.p0()
  %16 = alloca i8, i64 %10, align 16
  %17 = load ptr, ptr %5, align 8, !tbaa !3
  %18 = sub i64 0, %10
  %19 = and i64 %1, %18
  %20 = load ptr, ptr %17, align 8, !tbaa !9
  %21 = load ptr, ptr %20, align 8
  call void %21(ptr noundef nonnull align 8 dereferenceable(8) %17, i64 noundef %19, i64 noundef %10, ptr noundef nonnull %16)
  %22 = getelementptr inbounds nuw i8, ptr %16, i64 %12
  call void @llvm.memcpy.p0.p0.i64(ptr nonnull align 1 %22, ptr align 1 %3, i64 %.sroa.speculated65, i1 false)
  %23 = load ptr, ptr %5, align 8, !tbaa !3
  %24 = load ptr, ptr %23, align 8, !tbaa !9
  %25 = getelementptr inbounds nuw i8, ptr %24, i64 8
  %26 = load ptr, ptr %25, align 8
  call void %26(ptr noundef nonnull align 8 dereferenceable(8) %23, i64 noundef %19, i64 noundef %10, ptr noundef nonnull %16)
  %27 = getelementptr inbounds nuw i8, ptr %3, i64 %.sroa.speculated65
  %28 = add i64 %.sroa.speculated65, %1
  %29 = sub i64 %2, %.sroa.speculated65
  call void @llvm.stackrestore.p0(ptr %15)
  br label %._crit_edge86

._crit_edge86:                                    ; preds = %4, %13, %11
  %.078 = phi i64 [ %29, %13 ], [ %2, %11 ], [ 0, %4 ]
  %.054 = phi ptr [ %27, %13 ], [ %3, %11 ], [ %3, %4 ]
  %.053 = phi i64 [ %28, %13 ], [ %1, %11 ], [ %1, %4 ]
  %30 = and i64 %.078, %.pre
  %.not59 = icmp eq i64 %30, 0
  br i1 %.not59, label %44, label %31

31:                                               ; preds = %._crit_edge86
  %32 = sub i64 %.078, %30
  %33 = call ptr @llvm.stacksave.p0()
  %34 = alloca i8, i64 %10, align 16
  %35 = load ptr, ptr %5, align 8, !tbaa !3
  %36 = add i64 %.053, %32
  %37 = load ptr, ptr %35, align 8, !tbaa !9
  %38 = load ptr, ptr %37, align 8
  call void %38(ptr noundef nonnull align 8 dereferenceable(8) %35, i64 noundef %36, i64 noundef %10, ptr noundef nonnull %34)
  %39 = getelementptr inbounds nuw i8, ptr %.054, i64 %32
  call void @llvm.memcpy.p0.p0.i64(ptr nonnull align 16 %34, ptr align 1 %39, i64 %30, i1 false)
  %40 = load ptr, ptr %5, align 8, !tbaa !3
  %41 = load ptr, ptr %40, align 8, !tbaa !9
  %42 = getelementptr inbounds nuw i8, ptr %41, i64 8
  %43 = load ptr, ptr %42, align 8
  call void %43(ptr noundef nonnull align 8 dereferenceable(8) %40, i64 noundef %36, i64 noundef %10, ptr noundef nonnull %34)
  call void @llvm.stackrestore.p0(ptr %33)
  br label %44

44:                                               ; preds = %31, %._crit_edge86
  %.1 = phi i64 [ %.078, %._crit_edge86 ], [ %32, %31 ]
  %.not84 = icmp eq i64 %.1, 0
  br i1 %.not84, label %._crit_edge.thread, label %.lr.ph

._crit_edge:                                      ; preds = %.lr.ph
  br i1 %48, label %50, label %._crit_edge.thread

.lr.ph:                                           ; preds = %44, %.lr.ph
  %.05180 = phi i64 [ %49, %.lr.ph ], [ 0, %44 ]
  %.052.in79 = phi i1 [ %48, %.lr.ph ], [ true, %44 ]
  %45 = getelementptr inbounds nuw i8, ptr %.054, i64 %.05180
  %46 = load i8, ptr %45, align 1, !tbaa !13
  %47 = icmp eq i8 %46, 0
  %48 = and i1 %.052.in79, %47
  %49 = add nuw i64 %.05180, 1
  %exitcond.not = icmp eq i64 %49, %.1
  br i1 %exitcond.not, label %._crit_edge, label %.lr.ph, !llvm.loop !14

50:                                               ; preds = %._crit_edge
  %51 = load ptr, ptr %5, align 8, !tbaa !3
  %52 = load ptr, ptr %51, align 8, !tbaa !9
  %53 = getelementptr inbounds nuw i8, ptr %52, i64 16
  %54 = load ptr, ptr %53, align 8
  call void %54(ptr noundef nonnull align 8 dereferenceable(8) %51, i64 noundef %.053, i64 noundef %.1)
  br label %.loopexit

._crit_edge.thread:                               ; preds = %44, %._crit_edge
  %55 = load ptr, ptr %5, align 8, !tbaa !3
  %56 = load ptr, ptr %55, align 8, !tbaa !9
  %57 = getelementptr inbounds nuw i8, ptr %56, i64 32
  %58 = load ptr, ptr %57, align 8
  %59 = call noundef i64 %58(ptr noundef nonnull align 8 dereferenceable(8) %55)
  br i1 %.not84, label %.loopexit, label %.lr.ph83

.lr.ph83:                                         ; preds = %._crit_edge.thread, %.lr.ph83
  %.081 = phi i64 [ %67, %.lr.ph83 ], [ 0, %._crit_edge.thread ]
  %60 = load ptr, ptr %5, align 8, !tbaa !3
  %61 = add i64 %.081, %.053
  %62 = sub nuw i64 %.1, %.081
  %.sroa.speculated = call i64 @llvm.umin.i64(i64 %62, i64 %59)
  %63 = getelementptr inbounds nuw i8, ptr %.054, i64 %.081
  %64 = load ptr, ptr %60, align 8, !tbaa !9
  %65 = getelementptr inbounds nuw i8, ptr %64, i64 8
  %66 = load ptr, ptr %65, align 8
  call void %66(ptr noundef nonnull align 8 dereferenceable(8) %60, i64 noundef %61, i64 noundef %.sroa.speculated, ptr noundef %63)
  %67 = add i64 %.081, %59
  %68 = icmp ult i64 %67, %.1
  br i1 %68, label %.lr.ph83, label %.loopexit, !llvm.loop !15

.loopexit:                                        ; preds = %.lr.ph83, %._crit_edge.thread, %50
  ret void
}